target datalayout = "e-m:e-p270:32:32-p271:32:32-p272:64:64-i64:64-i128:128-f80:128-n8:16:32:64-S128"
target triple = "x86_64-pc-linux-gnu"

%struct.CVodeMemRec = type { ptr, double, ptr, ptr, i32, i32, double, double, ptr, i32, i32, ptr, ptr, i32, i32, ptr, i32, i32, double, double, ptr, i32, i32, i32, i32, ptr, ptr, ptr, i32, i32, ptr, ptr, ptr, i32, double, i32, i32, double, ptr, ptr, ptr, i32, ptr, ptr, i32, i32, i32, double, ptr, ptr, ptr, [13 x ptr], ptr, ptr, ptr, ptr, ptr, ptr, ptr, ptr, ptr, [13 x ptr], ptr, ptr, ptr, ptr, [13 x ptr], ptr, ptr, ptr, ptr, ptr, i32, [13 x ptr], ptr, ptr, ptr, ptr, ptr, i32, i32, double, i32, i32, i32, i32, i32, double, double, double, double, double, double, double, double, [14 x double], [6 x double], [13 x double], double, double, double, double, double, double, double, double, i32, double, double, i32, double, double, ptr, i32, i64, i32, i32, i32, double, double, double, double, double, double, double, double, double, double, double, double, i64, i32, i64, i64, i64, i64, i64, i64, i64, i64, i64, ptr, i64, i64, ptr, i64, i64, ptr, i64, i64, i64, i64, i64, i64, i32, double, double, double, i64, i64, i64, i64, i64, i64, ptr, i32, ptr, i32, ptr, i32, ptr, i32, i32, i64, i32, ptr, i32, ptr, ptr, ptr, ptr, ptr, ptr, i32, i32, ptr, ptr, ptr, ptr, ptr, i64, double, i32, i32, i64, double, double, double, i32, i32, double, i32, i32, i32, i32, i32, i32, i32, i32, i32, i32, i32, i32, i32, i32, i32, i32, ptr, i64, i32, [6 x [4 x double]], i32, i64, ptr, i32, ptr, ptr, double, double, double, ptr, ptr, ptr, double, double, i32, i32, i64, ptr, i32, ptr, i32, i32, [13 x double], ptr, ptr, ptr, i32, ptr, i32 }
%struct._generic_N_Vector = type { ptr, ptr, ptr }
%struct._generic_N_Vector_Ops = type { ptr, ptr, ptr, ptr, ptr, ptr, ptr, ptr, ptr, ptr, ptr, ptr, ptr, ptr, ptr, ptr, ptr, ptr, ptr, ptr, ptr, ptr, ptr, ptr, ptr, ptr, ptr, ptr, ptr, ptr, ptr, ptr, ptr, ptr, ptr, ptr, ptr, ptr, ptr, ptr, ptr, ptr, ptr, ptr, ptr, ptr, ptr, ptr, ptr, ptr, ptr, ptr, ptr, ptr, ptr, ptr }
%struct.CVDiagMemRec = type { double, ptr, ptr, ptr, i64, i64 }

@__func__.CVDiag = private unnamed_addr constant [7 x i8] c"CVDiag\00", align 1
@.str = private unnamed_addr constant [120 x i8] c"generated/home/dtcxzyw/WorkSpace/Projects/compilers/llvm-opt-benchmark/bench/sundials/sundials/src/cvodes/cvodes_diag.c\00", align 1
@.str.1 = private unnamed_addr constant [27 x i8] c"Integrator memory is NULL.\00", align 1
@.str.2 = private unnamed_addr constant [48 x i8] c"A required vector operation is not implemented.\00", align 1
@.str.3 = private unnamed_addr constant [25 x i8] c"A memory request failed.\00", align 1

; Function Attrs: nounwind uwtable
define i32 @CVDiag(ptr noundef %0) #0 {
  %2 = alloca i32, align 4
  %3 = alloca ptr, align 8
  %4 = alloca ptr, align 8
  %5 = alloca ptr, align 8
  %6 = alloca i32, align 4
  store ptr %0, ptr %3, align 8, !tbaa !3
  call void @llvm.lifetime.start.p0(i64 8, ptr %4) #5
  call void @llvm.lifetime.start.p0(i64 8, ptr %5) #5
  %7 = load ptr, ptr %3, align 8, !tbaa !3
  %8 = icmp eq ptr %7, null
  br i1 %8, label %9, label %10

9:                                                ; preds = %1
  call void (ptr, i32, i32, ptr, ptr, ptr, ...) @cvProcessError(ptr noundef null, i32 noundef -1, i32 noundef 105, ptr noundef @__func__.CVDiag, ptr noundef @.str, ptr noundef @.str.1)
  store i32 -1, ptr %2, align 4
  store i32 1, ptr %6, align 4
  br label %113

10:                                               ; preds = %1
  %11 = load ptr, ptr %3, align 8, !tbaa !3
  store ptr %11, ptr %4, align 8, !tbaa !7
  %12 = load ptr, ptr %4, align 8, !tbaa !7
  %13 = getelementptr inbounds nuw %struct.CVodeMemRec, ptr %12, i32 0, i32 55
  %14 = load ptr, ptr %13, align 8, !tbaa !9
  %15 = getelementptr inbounds nuw %struct._generic_N_Vector, ptr %14, i32 0, i32 1
  %16 = load ptr, ptr %15, align 8, !tbaa !23
  %17 = getelementptr inbounds nuw %struct._generic_N_Vector_Ops, ptr %16, i32 0, i32 26
  %18 = load ptr, ptr %17, align 8, !tbaa !26
  %19 = icmp eq ptr %18, null
  br i1 %19, label %29, label %20

20:                                               ; preds = %10
  %21 = load ptr, ptr %4, align 8, !tbaa !7
  %22 = getelementptr inbounds nuw %struct.CVodeMemRec, ptr %21, i32 0, i32 55
  %23 = load ptr, ptr %22, align 8, !tbaa !9
  %24 = getelementptr inbounds nuw %struct._generic_N_Vector, ptr %23, i32 0, i32 1
  %25 = load ptr, ptr %24, align 8, !tbaa !23
  %26 = getelementptr inbounds nuw %struct._generic_N_Vector_Ops, ptr %25, i32 0, i32 27
  %27 = load ptr, ptr %26, align 8, !tbaa !28
  %28 = icmp eq ptr %27, null
  br i1 %28, label %29, label %31

29:                                               ; preds = %20, %10
  %30 = load ptr, ptr %4, align 8, !tbaa !7
  call void (ptr, i32, i32, ptr, ptr, ptr, ...) @cvProcessError(ptr noundef %30, i32 noundef -3, i32 noundef 114, ptr noundef @__func__.CVDiag, ptr noundef @.str, ptr noundef @.str.2)
  store i32 -3, ptr %2, align 4
  store i32 1, ptr %6, align 4
  br label %113

31:                                               ; preds = %20
  %32 = load ptr, ptr %4, align 8, !tbaa !7
  %33 = getelementptr inbounds nuw %struct.CVodeMemRec, ptr %32, i32 0, i32 188
  %34 = load ptr, ptr %33, align 8, !tbaa !29
  %35 = icmp ne ptr %34, null
  br i1 %35, label %36, label %42

36:                                               ; preds = %31
  %37 = load ptr, ptr %4, align 8, !tbaa !7
  %38 = getelementptr inbounds nuw %struct.CVodeMemRec, ptr %37, i32 0, i32 188
  %39 = load ptr, ptr %38, align 8, !tbaa !29
  %40 = load ptr, ptr %4, align 8, !tbaa !7
  %41 = call i32 %39(ptr noundef %40)
  br label %42

42:                                               ; preds = %36, %31
  %43 = load ptr, ptr %4, align 8, !tbaa !7
  %44 = getelementptr inbounds nuw %struct.CVodeMemRec, ptr %43, i32 0, i32 185
  store ptr @CVDiagInit, ptr %44, align 8, !tbaa !30
  %45 = load ptr, ptr %4, align 8, !tbaa !7
  %46 = getelementptr inbounds nuw %struct.CVodeMemRec, ptr %45, i32 0, i32 186
  store ptr @CVDiagSetup, ptr %46, align 8, !tbaa !31
  %47 = load ptr, ptr %4, align 8, !tbaa !7
  %48 = getelementptr inbounds nuw %struct.CVodeMemRec, ptr %47, i32 0, i32 187
  store ptr @CVDiagSolve, ptr %48, align 8, !tbaa !32
  %49 = load ptr, ptr %4, align 8, !tbaa !7
  %50 = getelementptr inbounds nuw %struct.CVodeMemRec, ptr %49, i32 0, i32 188
  store ptr @CVDiagFree, ptr %50, align 8, !tbaa !29
  store ptr null, ptr %5, align 8, !tbaa !3
  %51 = call noalias ptr @malloc(i64 noundef 48) #6
  store ptr %51, ptr %5, align 8, !tbaa !3
  %52 = load ptr, ptr %5, align 8, !tbaa !3
  %53 = icmp eq ptr %52, null
  br i1 %53, label %54, label %56

54:                                               ; preds = %42
  %55 = load ptr, ptr %4, align 8, !tbaa !7
  call void (ptr, i32, i32, ptr, ptr, ptr, ...) @cvProcessError(ptr noundef %55, i32 noundef -4, i32 noundef 132, ptr noundef @__func__.CVDiag, ptr noundef @.str, ptr noundef @.str.3)
  store i32 -4, ptr %2, align 4
  store i32 1, ptr %6, align 4
  br label %113

56:                                               ; preds = %42
  %57 = load ptr, ptr %5, align 8, !tbaa !3
  %58 = getelementptr inbounds nuw %struct.CVDiagMemRec, ptr %57, i32 0, i32 5
  store i64 0, ptr %58, align 8, !tbaa !33
  %59 = load ptr, ptr %4, align 8, !tbaa !7
  %60 = getelementptr inbounds nuw %struct.CVodeMemRec, ptr %59, i32 0, i32 55
  %61 = load ptr, ptr %60, align 8, !tbaa !9
  %62 = call ptr @N_VClone(ptr noundef %61)
  %63 = load ptr, ptr %5, align 8, !tbaa !3
  %64 = getelementptr inbounds nuw %struct.CVDiagMemRec, ptr %63, i32 0, i32 1
  store ptr %62, ptr %64, align 8, !tbaa !35
  %65 = load ptr, ptr %5, align 8, !tbaa !3
  %66 = getelementptr inbounds nuw %struct.CVDiagMemRec, ptr %65, i32 0, i32 1
  %67 = load ptr, ptr %66, align 8, !tbaa !35
  %68 = icmp eq ptr %67, null
  br i1 %68, label %69, label %72

69:                                               ; preds = %56
  %70 = load ptr, ptr %4, align 8, !tbaa !7
  call void (ptr, i32, i32, ptr, ptr, ptr, ...) @cvProcessError(ptr noundef %70, i32 noundef -4, i32 noundef 144, ptr noundef @__func__.CVDiag, ptr noundef @.str, ptr noundef @.str.3)
  %71 = load ptr, ptr %5, align 8, !tbaa !3
  call void @free(ptr noundef %71) #5
  store ptr null, ptr %5, align 8, !tbaa !3
  store i32 -4, ptr %2, align 4
  store i32 1, ptr %6, align 4
  br label %113

72:                                               ; preds = %56
  %73 = load ptr, ptr %4, align 8, !tbaa !7
  %74 = getelementptr inbounds nuw %struct.CVodeMemRec, ptr %73, i32 0, i32 55
  %75 = load ptr, ptr %74, align 8, !tbaa !9
  %76 = call ptr @N_VClone(ptr noundef %75)
  %77 = load ptr, ptr %5, align 8, !tbaa !3
  %78 = getelementptr inbounds nuw %struct.CVDiagMemRec, ptr %77, i32 0, i32 2
  store ptr %76, ptr %78, align 8, !tbaa !36
  %79 = load ptr, ptr %5, align 8, !tbaa !3
  %80 = getelementptr inbounds nuw %struct.CVDiagMemRec, ptr %79, i32 0, i32 2
  %81 = load ptr, ptr %80, align 8, !tbaa !36
  %82 = icmp eq ptr %81, null
  br i1 %82, label %83, label %89

83:                                               ; preds = %72
  %84 = load ptr, ptr %4, align 8, !tbaa !7
  call void (ptr, i32, i32, ptr, ptr, ptr, ...) @cvProcessError(ptr noundef %84, i32 noundef -4, i32 noundef 153, ptr noundef @__func__.CVDiag, ptr noundef @.str, ptr noundef @.str.3)
  %85 = load ptr, ptr %5, align 8, !tbaa !3
  %86 = getelementptr inbounds nuw %struct.CVDiagMemRec, ptr %85, i32 0, i32 1
  %87 = load ptr, ptr %86, align 8, !tbaa !35
  call void @N_VDestroy(ptr noundef %87)
  %88 = load ptr, ptr %5, align 8, !tbaa !3
  call void @free(ptr noundef %88) #5
  store ptr null, ptr %5, align 8, !tbaa !3
  store i32 -4, ptr %2, align 4
  store i32 1, ptr %6, align 4
  br label %113

89:                                               ; preds = %72
  %90 = load ptr, ptr %4, align 8, !tbaa !7
  %91 = getelementptr inbounds nuw %struct.CVodeMemRec, ptr %90, i32 0, i32 55
  %92 = load ptr, ptr %91, align 8, !tbaa !9
  %93 = call ptr @N_VClone(ptr noundef %92)
  %94 = load ptr, ptr %5, align 8, !tbaa !3
  %95 = getelementptr inbounds nuw %struct.CVDiagMemRec, ptr %94, i32 0, i32 3
  store ptr %93, ptr %95, align 8, !tbaa !37
  %96 = load ptr, ptr %5, align 8, !tbaa !3
  %97 = getelementptr inbounds nuw %struct.CVDiagMemRec, ptr %96, i32 0, i32 3
  %98 = load ptr, ptr %97, align 8, !tbaa !37
  %99 = icmp eq ptr %98, null
  br i1 %99, label %100, label %109

100:                                              ; preds = %89
  %101 = load ptr, ptr %4, align 8, !tbaa !7
  call void (ptr, i32, i32, ptr, ptr, ptr, ...) @cvProcessError(ptr noundef %101, i32 noundef -4, i32 noundef 163, ptr noundef @__func__.CVDiag, ptr noundef @.str, ptr noundef @.str.3)
  %102 = load ptr, ptr %5, align 8, !tbaa !3
  %103 = getelementptr inbounds nuw %struct.CVDiagMemRec, ptr %102, i32 0, i32 1
  %104 = load ptr, ptr %103, align 8, !tbaa !35
  call void @N_VDestroy(ptr noundef %104)
  %105 = load ptr, ptr %5, align 8, !tbaa !3
  %106 = getelementptr inbounds nuw %struct.CVDiagMemRec, ptr %105, i32 0, i32 2
  %107 = load ptr, ptr %106, align 8, !tbaa !36
  call void @N_VDestroy(ptr noundef %107)
  %108 = load ptr, ptr %5, align 8, !tbaa !3
  call void @free(ptr noundef %108) #5
  store ptr null, ptr %5, align 8, !tbaa !3
  store i32 -4, ptr %2, align 4
  store i32 1, ptr %6, align 4
  br label %113

109:                                              ; preds = %89
  %110 = load ptr, ptr %5, align 8, !tbaa !3
  %111 = load ptr, ptr %4, align 8, !tbaa !7
  %112 = getelementptr inbounds nuw %struct.CVodeMemRec, ptr %111, i32 0, i32 189
  store ptr %110, ptr %112, align 8, !tbaa !38
  store i32 0, ptr %2, align 4
  store i32 1, ptr %6, align 4
  br label %113

113:                                              ; preds = %109, %100, %83, %69, %54, %29, %9
  call void @llvm.lifetime.end.p0(i64 8, ptr %5) #5
  call void @llvm.lifetime.end.p0(i64 8, ptr %4) #5
  %114 = load i32, ptr %2, align 4
  ret i32 %114
}