; Function Attrs: nounwind uwtable
define range(i32 -4, 1) i32 @CVDiag(ptr noundef %0) local_unnamed_addr #0 {
  %2 = icmp eq ptr %0, null
  br i1 %2, label %3, label %4

3:                                                ; preds = %1
  tail call void (ptr, i32, i32, ptr, ptr, ptr, ...) @cvProcessError(ptr noundef null, i32 noundef -1, i32 noundef 105, ptr noundef nonnull @__func__.CVDiag, ptr noundef nonnull @.str, ptr noundef nonnull @.str.1) #8
  br label %50

4:                                                ; preds = %1
  %5 = getelementptr inbounds nuw i8, ptr %0, i64 464
  %6 = load ptr, ptr %5, align 8, !tbaa !3
  %7 = getelementptr inbounds nuw i8, ptr %6, i64 8
  %8 = load ptr, ptr %7, align 8, !tbaa !20
  %9 = getelementptr inbounds nuw i8, ptr %8, i64 208
  %10 = load ptr, ptr %9, align 8, !tbaa !23
  %11 = icmp eq ptr %10, null
  br i1 %11, label %16, label %12

12:                                               ; preds = %4
  %13 = getelementptr inbounds nuw i8, ptr %8, i64 216
  %14 = load ptr, ptr %13, align 8, !tbaa !25
  %15 = icmp eq ptr %14, null
  br i1 %15, label %16, label %17

16:                                               ; preds = %12, %4
  tail call void (ptr, i32, i32, ptr, ptr, ptr, ...) @cvProcessError(ptr noundef nonnull %0, i32 noundef -3, i32 noundef 114, ptr noundef nonnull @__func__.CVDiag, ptr noundef nonnull @.str, ptr noundef nonnull @.str.2) #8
  br label %50

17:                                               ; preds = %12
  %18 = getelementptr inbounds nuw i8, ptr %0, i64 2008
  %19 = load ptr, ptr %18, align 8, !tbaa !26
  %.not = icmp eq ptr %19, null
  br i1 %.not, label %22, label %20

20:                                               ; preds = %17
  %21 = tail call i32 %19(ptr noundef nonnull %0) #8
  br label %22

22:                                               ; preds = %20, %17
  %23 = getelementptr inbounds nuw i8, ptr %0, i64 1984
  store ptr @CVDiagInit, ptr %23, align 8, !tbaa !27
  %24 = getelementptr inbounds nuw i8, ptr %0, i64 1992
  store ptr @CVDiagSetup, ptr %24, align 8, !tbaa !28
  %25 = getelementptr inbounds nuw i8, ptr %0, i64 2000
  store ptr @CVDiagSolve, ptr %25, align 8, !tbaa !29
  store ptr @CVDiagFree, ptr %18, align 8, !tbaa !26
  %26 = tail call noalias dereferenceable_or_null(48) ptr @malloc(i64 noundef 48) #9
  %27 = icmp eq ptr %26, null
  br i1 %27, label %28, label %29

28:                                               ; preds = %22
  tail call void (ptr, i32, i32, ptr, ptr, ptr, ...) @cvProcessError(ptr noundef nonnull %0, i32 noundef -4, i32 noundef 132, ptr noundef nonnull @__func__.CVDiag, ptr noundef nonnull @.str, ptr noundef nonnull @.str.3) #8
  br label %50

29:                                               ; preds = %22
  %30 = getelementptr inbounds nuw i8, ptr %26, i64 40
  store i64 0, ptr %30, align 8, !tbaa !30
  %31 = load ptr, ptr %5, align 8, !tbaa !3
  %32 = tail call ptr @N_VClone(ptr noundef %31) #8
  %33 = getelementptr inbounds nuw i8, ptr %26, i64 8
  store ptr %32, ptr %33, align 8, !tbaa !32
  %34 = icmp eq ptr %32, null
  br i1 %34, label %35, label %36

35:                                               ; preds = %29
  tail call void (ptr, i32, i32, ptr, ptr, ptr, ...) @cvProcessError(ptr noundef nonnull %0, i32 noundef -4, i32 noundef 144, ptr noundef nonnull @__func__.CVDiag, ptr noundef nonnull @.str, ptr noundef nonnull @.str.3) #8
  tail call void @free(ptr noundef nonnull %26) #8
  br label %50

36:                                               ; preds = %29
  %37 = load ptr, ptr %5, align 8, !tbaa !3
  %38 = tail call ptr @N_VClone(ptr noundef %37) #8
  %39 = getelementptr inbounds nuw i8, ptr %26, i64 16
  store ptr %38, ptr %39, align 8, !tbaa !33
  %40 = icmp eq ptr %38, null
  br i1 %40, label %41, label %42

41:                                               ; preds = %36
  tail call void (ptr, i32, i32, ptr, ptr, ptr, ...) @cvProcessError(ptr noundef nonnull %0, i32 noundef -4, i32 noundef 153, ptr noundef nonnull @__func__.CVDiag, ptr noundef nonnull @.str, ptr noundef nonnull @.str.3) #8
  tail call void @N_VDestroy(ptr noundef nonnull %32) #8
  tail call void @free(ptr noundef nonnull %26) #8
  br label %50

42:                                               ; preds = %36
  %43 = load ptr, ptr %5, align 8, !tbaa !3
  %44 = tail call ptr @N_VClone(ptr noundef %43) #8
  %45 = getelementptr inbounds nuw i8, ptr %26, i64 24
  store ptr %44, ptr %45, align 8, !tbaa !34
  %46 = icmp eq ptr %44, null
  br i1 %46, label %47, label %48

47:                                               ; preds = %42
  tail call void (ptr, i32, i32, ptr, ptr, ptr, ...) @cvProcessError(ptr noundef nonnull %0, i32 noundef -4, i32 noundef 163, ptr noundef nonnull @__func__.CVDiag, ptr noundef nonnull @.str, ptr noundef nonnull @.str.3) #8
  tail call void @N_VDestroy(ptr noundef nonnull %32) #8
  tail call void @N_VDestroy(ptr noundef nonnull %38) #8
  tail call void @free(ptr noundef nonnull %26) #8
  br label %50

48:                                               ; preds = %42
  %49 = getelementptr inbounds nuw i8, ptr %0, i64 2016
  store ptr %26, ptr %49, align 8, !tbaa !35
  br label %50

50:                                               ; preds = %48, %47, %41, %35, %28, %16, %3
  %.0 = phi i32 [ -1, %3 ], [ -3, %16 ], [ -4, %28 ], [ -4, %35 ], [ -4, %41 ], [ -4, %47 ], [ 0, %48 ]
  ret i32 %.0
}